target datalayout = "e-m:e-p270:32:32-p271:32:32-p272:64:64-i64:64-i128:128-f80:128-n8:16:32:64-S128"
target triple = "x86_64-pc-linux-gnu"

%struct._zend_array = type { %struct._zend_refcounted_h, %union.anon.0, i32, %union.anon.1, i32, i32, i32, i32, i64, ptr }
%struct._zend_refcounted_h = type { i32, %union.anon }
%union.anon = type { i32 }
%union.anon.0 = type { i32 }
%union.anon.1 = type { ptr }
%struct._zval_struct = type { %union._zend_value, %union.anon.3, %union.anon.6 }
%union._zend_value = type { i64 }
%union.anon.3 = type { i32 }
%union.anon.6 = type { i32 }
%struct._Bucket = type { %struct._zval_struct, i64, ptr }

; Function Attrs: nounwind uwtable
define i32 @zend_hash_get_current_key_ex(ptr noundef %0, ptr noundef %1, ptr noundef %2, ptr noundef %3) #0 {
  %5 = alloca ptr, align 8
  %6 = alloca ptr, align 8
  %7 = alloca ptr, align 8
  %8 = alloca i32, align 4
  %9 = alloca i32, align 4
  %10 = alloca ptr, align 8
  %11 = alloca ptr, align 8
  %12 = alloca ptr, align 8
  %13 = alloca ptr, align 8
  %14 = alloca i32, align 4
  %15 = alloca ptr, align 8
  store ptr %0, ptr %10, align 8
  store ptr %1, ptr %11, align 8
  store ptr %2, ptr %12, align 8
  store ptr %3, ptr %13, align 8
  %16 = load ptr, ptr %10, align 8
  %17 = load ptr, ptr %13, align 8
  %18 = load i32, ptr %17, align 4
  store ptr %16, ptr %7, align 8
  store i32 %18, ptr %8, align 4
  %19 = load ptr, ptr %7, align 8
  %20 = getelementptr inbounds %struct._zend_array, ptr %19, i32 0, i32 1
  %21 = load i32, ptr %20, align 8
  %22 = and i32 %21, 4
  %23 = icmp ne i32 %22, 0
  br i1 %23, label %24, label %49

24:                                               ; preds = %4
  br label %25

25:                                               ; preds = %45, %24
  %26 = load i32, ptr %8, align 4
  %27 = load ptr, ptr %7, align 8
  %28 = getelementptr inbounds %struct._zend_array, ptr %27, i32 0, i32 4
  %29 = load i32, ptr %28, align 8
  %30 = icmp ult i32 %26, %29
  br i1 %30, label %31, label %43

31:                                               ; preds = %25
  %32 = load ptr, ptr %7, align 8
  %33 = getelementptr inbounds %struct._zend_array, ptr %32, i32 0, i32 3
  %34 = load ptr, ptr %33, align 8
  %35 = load i32, ptr %8, align 4
  %36 = zext i32 %35 to i64
  %37 = getelementptr inbounds %struct._zval_struct, ptr %34, i64 %36
  store ptr %37, ptr %5, align 8
  %38 = load ptr, ptr %5, align 8
  %39 = getelementptr inbounds %struct._zval_struct, ptr %38, i32 0, i32 1
  %40 = load i8, ptr %39, align 8
  %41 = zext i8 %40 to i32
  %42 = icmp eq i32 %41, 0
  br label %43

43:                                               ; preds = %31, %25
  %44 = phi i1 [ false, %25 ], [ %42, %31 ]
  br i1 %44, label %45, label %48

45:                                               ; preds = %43
  %46 = load i32, ptr %8, align 4
  %47 = add i32 %46, 1
  store i32 %47, ptr %8, align 4
  br label %25

48:                                               ; preds = %43
  br label %74

49:                                               ; preds = %4
  br label %50

50:                                               ; preds = %70, %49
  %51 = load i32, ptr %8, align 4
  %52 = load ptr, ptr %7, align 8
  %53 = getelementptr inbounds %struct._zend_array, ptr %52, i32 0, i32 4
  %54 = load i32, ptr %53, align 8
  %55 = icmp ult i32 %51, %54
  br i1 %55, label %56, label %68

56:                                               ; preds = %50
  %57 = load ptr, ptr %7, align 8
  %58 = getelementptr inbounds %struct._zend_array, ptr %57, i32 0, i32 3
  %59 = load ptr, ptr %58, align 8
  %60 = load i32, ptr %8, align 4
  %61 = zext i32 %60 to i64
  %62 = getelementptr inbounds %struct._Bucket, ptr %59, i64 %61
  store ptr %62, ptr %6, align 8
  %63 = load ptr, ptr %6, align 8
  %64 = getelementptr inbounds %struct._zval_struct, ptr %63, i32 0, i32 1
  %65 = load i8, ptr %64, align 8
  %66 = zext i8 %65 to i32
  %67 = icmp eq i32 %66, 0
  br label %68

68:                                               ; preds = %56, %50
  %69 = phi i1 [ false, %50 ], [ %67, %56 ]
  br i1 %69, label %70, label %73

70:                                               ; preds = %68
  %71 = load i32, ptr %8, align 4
  %72 = add i32 %71, 1
  store i32 %72, ptr %8, align 4
  br label %50

73:                                               ; preds = %68
  br label %74

74:                                               ; preds = %73, %48
  %75 = load i32, ptr %8, align 4
  store i32 %75, ptr %14, align 4
  %76 = load i32, ptr %14, align 4
  %77 = load ptr, ptr %10, align 8
  %78 = getelementptr inbounds %struct._zend_array, ptr %77, i32 0, i32 4
  %79 = load i32, ptr %78, align 8
  %80 = icmp ult i32 %76, %79
  br i1 %80, label %81, label %112

81:                                               ; preds = %74
  %82 = load ptr, ptr %10, align 8
  %83 = getelementptr inbounds %struct._zend_array, ptr %82, i32 0, i32 1
  %84 = load i32, ptr %83, align 8
  %85 = and i32 %84, 4
  %86 = icmp ne i32 %85, 0
  br i1 %86, label %87, label %91

87:                                               ; preds = %81
  %88 = load i32, ptr %14, align 4
  %89 = zext i32 %88 to i64
  %90 = load ptr, ptr %12, align 8
  store i64 %89, ptr %90, align 8
  store i32 2, ptr %9, align 4
  br label %113

91:                                               ; preds = %81
  %92 = load ptr, ptr %10, align 8
  %93 = getelementptr inbounds %struct._zend_array, ptr %92, i32 0, i32 3
  %94 = load ptr, ptr %93, align 8
  %95 = load i32, ptr %14, align 4
  %96 = zext i32 %95 to i64
  %97 = getelementptr inbounds %struct._Bucket, ptr %94, i64 %96
  store ptr %97, ptr %15, align 8
  %98 = load ptr, ptr %15, align 8
  %99 = getelementptr inbounds %struct._Bucket, ptr %98, i32 0, i32 2
  %100 = load ptr, ptr %99, align 8
  %101 = icmp ne ptr %100, null
  br i1 %101, label %102, label %107

102:                                              ; preds = %91
  %103 = load ptr, ptr %15, align 8
  %104 = getelementptr inbounds %struct._Bucket, ptr %103, i32 0, i32 2
  %105 = load ptr, ptr %104, align 8
  %106 = load ptr, ptr %11, align 8
  store ptr %105, ptr %106, align 8
  store i32 1, ptr %9, align 4
  br label %113

107:                                              ; preds = %91
  %108 = load ptr, ptr %15, align 8
  %109 = getelementptr inbounds %struct._Bucket, ptr %108, i32 0, i32 1
  %110 = load i64, ptr %109, align 8
  %111 = load ptr, ptr %12, align 8
  store i64 %110, ptr %111, align 8
  store i32 2, ptr %9, align 4
  br label %113

112:                                              ; preds = %74
  store i32 3, ptr %9, align 4
  br label %113

113:                                              ; preds = %112, %107, %102, %87
  %114 = load i32, ptr %9, align 4
  ret i32 %114
}