; Function Attrs: nofree norecurse nosync nounwind memory(read, argmem: readwrite, inaccessiblemem: none) uwtable
define noundef i32 @zend_hash_get_current_key_ex(ptr nocapture noundef readonly %0, ptr nocapture noundef writeonly %1, ptr nocapture noundef writeonly %2, ptr nocapture noundef readonly %3) local_unnamed_addr #19 {
  %5 = load i32, ptr %3, align 4
  %6 = getelementptr inbounds i8, ptr %0, i64 8
  %7 = load i32, ptr %6, align 8
  %8 = and i32 %7, 4
  %.not = icmp eq i32 %8, 0
  %9 = getelementptr inbounds i8, ptr %0, i64 24
  %10 = load i32, ptr %9, align 8
  %11 = icmp ult i32 %5, %10
  br i1 %.not, label %.preheader, label %.preheader34

.preheader34:                                     ; preds = %4
  br i1 %11, label %.lr.ph, label %.critedge.thread

.lr.ph:                                           ; preds = %.preheader34
  %12 = getelementptr inbounds i8, ptr %0, i64 16
  %13 = load ptr, ptr %12, align 8
  %14 = zext i32 %5 to i64
  br label %18

.preheader:                                       ; preds = %4
  br i1 %11, label %.lr.ph40, label %.critedge.thread

.lr.ph40:                                         ; preds = %.preheader
  %15 = getelementptr inbounds i8, ptr %0, i64 16
  %16 = load ptr, ptr %15, align 8
  %17 = zext i32 %5 to i64
  br label %23

18:                                               ; preds = %.lr.ph, %22
  %indvars.iv = phi i64 [ %14, %.lr.ph ], [ %indvars.iv.next, %22 ]
  %19 = getelementptr inbounds %struct._zval_struct, ptr %13, i64 %indvars.iv, i32 1
  %20 = load i8, ptr %19, align 8
  %21 = icmp eq i8 %20, 0
  br i1 %21, label %22, label %.critedge

22:                                               ; preds = %18
  %indvars.iv.next = add nuw nsw i64 %indvars.iv, 1
  %lftr.wideiv = trunc i64 %indvars.iv.next to i32
  %exitcond.not = icmp eq i32 %10, %lftr.wideiv
  br i1 %exitcond.not, label %.critedge.thread, label %18

23:                                               ; preds = %.lr.ph40, %27
  %indvars.iv47 = phi i64 [ %17, %.lr.ph40 ], [ %indvars.iv.next48, %27 ]
  %24 = getelementptr inbounds %struct._Bucket, ptr %16, i64 %indvars.iv47, i32 0, i32 1
  %25 = load i8, ptr %24, align 8
  %26 = icmp eq i8 %25, 0
  br i1 %26, label %27, label %.critedge

27:                                               ; preds = %23
  %indvars.iv.next48 = add nuw nsw i64 %indvars.iv47, 1
  %lftr.wideiv50 = trunc i64 %indvars.iv.next48 to i32
  %exitcond51.not = icmp eq i32 %10, %lftr.wideiv50
  br i1 %exitcond51.not, label %.critedge.thread, label %23

.critedge:                                        ; preds = %18, %23
  %indvars.iv.lcssa.sink = phi i64 [ %indvars.iv47, %23 ], [ %indvars.iv, %18 ]
  %28 = trunc i64 %indvars.iv.lcssa.sink to i32
  %29 = icmp ugt i32 %10, %28
  br i1 %29, label %30, label %.critedge.thread

30:                                               ; preds = %.critedge
  br i1 %.not, label %33, label %31

31:                                               ; preds = %30
  %32 = and i64 %indvars.iv.lcssa.sink, 4294967295
  store i64 %32, ptr %2, align 8
  br label %.critedge.thread

33:                                               ; preds = %30
  %34 = getelementptr inbounds i8, ptr %0, i64 16
  %35 = load ptr, ptr %34, align 8
  %36 = and i64 %indvars.iv.lcssa.sink, 4294967295
  %37 = getelementptr inbounds %struct._Bucket, ptr %35, i64 %36
  %38 = getelementptr inbounds i8, ptr %37, i64 24
  %39 = load ptr, ptr %38, align 8
  %.not33 = icmp eq ptr %39, null
  br i1 %.not33, label %41, label %40

40:                                               ; preds = %33
  store ptr %39, ptr %1, align 8
  br label %.critedge.thread

41:                                               ; preds = %33
  %42 = getelementptr inbounds i8, ptr %37, i64 16
  %43 = load i64, ptr %42, align 8
  store i64 %43, ptr %2, align 8
  br label %.critedge.thread

.critedge.thread:                                 ; preds = %22, %27, %.preheader34, %.preheader, %.critedge, %41, %40, %31
  %.030 = phi i32 [ 2, %31 ], [ 1, %40 ], [ 2, %41 ], [ 3, %.critedge ], [ 3, %.preheader ], [ 3, %.preheader34 ], [ 3, %27 ], [ 3, %22 ]
  ret i32 %.030
}